; Function Attrs: mustprogress uwtable
define void @_ZN7rocksdb13BlobFileCache5EvictEm(ptr noundef nonnull readonly align 8 captures(none) dereferenceable(80) %0, i64 noundef %1) local_unnamed_addr #1 align 2 {
  %3 = alloca i64, align 8
  %4 = alloca %"class.rocksdb::Slice", align 8
  store i64 %1, ptr %3, align 8, !tbaa !45
  call void @llvm.lifetime.start.p0(i64 16, ptr nonnull %4) #12
  store ptr %3, ptr %4, align 8
  %5 = getelementptr inbounds nuw i8, ptr %4, i64 8
  store i64 8, ptr %5, align 8
  %6 = load ptr, ptr %0, align 8, !tbaa !4
  %7 = load ptr, ptr %6, align 8, !tbaa !46
  %8 = getelementptr inbounds nuw i8, ptr %7, i64 200
  %9 = load ptr, ptr %8, align 8
  call void %9(ptr noundef nonnull align 8 dereferenceable(80) %6, ptr noundef nonnull align 8 dereferenceable(16) %4)
  call void @llvm.lifetime.end.p0(i64 16, ptr nonnull %4) #12
  ret void
}